; ModuleID = '20/958.c'
source_filename = "20/958.c"
target datalayout = "e-m:e-p270:32:32-p271:32:32-p272:64:64-i64:64-f80:128-n8:16:32:64-S128"
target triple = "x86_64-pc-linux-gnu"

@.str = private unnamed_addr constant [5 x i8] c"%s%s\00", align 1
@.str.1 = private unnamed_addr constant [3 x i8] c"%c\00", align 1
@.str.2 = private unnamed_addr constant [3 x i8] c"%s\00", align 1
@.str.3 = private unnamed_addr constant [2 x i8] c"\0A\00", align 1

; Function Attrs: noinline nounwind uwtable
define dso_local i32 @main() #0 {
  %1 = alloca i32, align 4
  %2 = alloca [11 x i8], align 1
  %3 = alloca [4 x i8], align 1
  %4 = alloca i32, align 4
  %5 = alloca i32, align 4
  store i32 0, i32* %1, align 4
  br label %6

6:                                                ; preds = %68, %0
  %7 = getelementptr inbounds [11 x i8], [11 x i8]* %2, i64 0, i64 0
  %8 = getelementptr inbounds [4 x i8], [4 x i8]* %3, i64 0, i64 0
  %9 = call i32 (i8*, ...) @__isoc99_scanf(i8* getelementptr inbounds ([5 x i8], [5 x i8]* @.str, i64 0, i64 0), i8* %7, i8* %8)
  %10 = icmp ne i32 %9, -1
  br i1 %10, label %11, label %70

11:                                               ; preds = %6
  store i32 0, i32* %5, align 4
  store i32 1, i32* %4, align 4
  br label %12

12:                                               ; preds = %33, %11
  %13 = load i32, i32* %4, align 4
  %14 = sext i32 %13 to i64
  %15 = getelementptr inbounds [11 x i8], [11 x i8]* %2, i64 0, i64 %14
  %16 = load i8, i8* %15, align 1
  %17 = icmp ne i8 %16, 0
  br i1 %17, label %18, label %36

18:                                               ; preds = %12
  %19 = load i32, i32* %4, align 4
  %20 = sext i32 %19 to i64
  %21 = getelementptr inbounds [11 x i8], [11 x i8]* %2, i64 0, i64 %20
  %22 = load i8, i8* %21, align 1
  %23 = sext i8 %22 to i32
  %24 = load i32, i32* %5, align 4
  %25 = sext i32 %24 to i64
  %26 = getelementptr inbounds [11 x i8], [11 x i8]* %2, i64 0, i64 %25
  %27 = load i8, i8* %26, align 1
  %28 = sext i8 %27 to i32
  %29 = icmp sgt i32 %23, %28
  br i1 %29, label %30, label %32

30:                                               ; preds = %18
  %31 = load i32, i32* %4, align 4
  store i32 %31, i32* %5, align 4
  br label %32

32:                                               ; preds = %30, %18
  br label %33

33:                                               ; preds = %32
  %34 = load i32, i32* %4, align 4
  %35 = add nsw i32 %34, 1
  store i32 %35, i32* %4, align 4
  br label %12

36:                                               ; preds = %12
  store i32 0, i32* %4, align 4
  br label %37

37:                                               ; preds = %48, %36
  %38 = load i32, i32* %4, align 4
  %39 = load i32, i32* %5, align 4
  %40 = icmp sle i32 %38, %39
  br i1 %40, label %41, label %51

41:                                               ; preds = %37
  %42 = load i32, i32* %4, align 4
  %43 = sext i32 %42 to i64
  %44 = getelementptr inbounds [11 x i8], [11 x i8]* %2, i64 0, i64 %43
  %45 = load i8, i8* %44, align 1
  %46 = sext i8 %45 to i32
  %47 = call i32 (i8*, ...) @printf(i8* getelementptr inbounds ([3 x i8], [3 x i8]* @.str.1, i64 0, i64 0), i32 %46)
  br label %48

48:                                               ; preds = %41
  %49 = load i32, i32* %4, align 4
  %50 = add nsw i32 %49, 1
  store i32 %50, i32* %4, align 4
  br label %37

51:                                               ; preds = %37
  %52 = getelementptr inbounds [4 x i8], [4 x i8]* %3, i64 0, i64 0
  %53 = call i32 (i8*, ...) @printf(i8* getelementptr inbounds ([3 x i8], [3 x i8]* @.str.2, i64 0, i64 0), i8* %52)
  br label %54

54:                                               ; preds = %60, %51
  %55 = load i32, i32* %4, align 4
  %56 = sext i32 %55 to i64
  %57 = getelementptr inbounds [11 x i8], [11 x i8]* %2, i64 0, i64 %56
  %58 = load i8, i8* %57, align 1
  %59 = icmp ne i8 %58, 0
  br i1 %59, label %60, label %68

60:                                               ; preds = %54
  %61 = load i32, i32* %4, align 4
  %62 = add nsw i32 %61, 1
  store i32 %62, i32* %4, align 4
  %63 = sext i32 %61 to i64
  %64 = getelementptr inbounds [11 x i8], [11 x i8]* %2, i64 0, i64 %63
  %65 = load i8, i8* %64, align 1
  %66 = sext i8 %65 to i32
  %67 = call i32 (i8*, ...) @printf(i8* getelementptr inbounds ([3 x i8], [3 x i8]* @.str.1, i64 0, i64 0), i32 %66)
  br label %54

68:                                               ; preds = %54
  %69 = call i32 (i8*, ...) @printf(i8* getelementptr inbounds ([2 x i8], [2 x i8]* @.str.3, i64 0, i64 0))
  br label %6

70:                                               ; preds = %6
  ret i32 0
}

declare dso_local i32 @__isoc99_scanf(i8*, ...) #1

declare dso_local i32 @printf(i8*, ...) #1


!llvm.module.flags = !{!0}
!llvm.ident = !{!1}

!0 = !{i32 1, !"wchar_size", i32 4}
!1 = !{!"clang version 10.0.0-4ubuntu1 "}
