; ModuleID = 'source-C-CXX/19/958.c'
source_filename = "source-C-CXX/19/958.c"
target datalayout = "e-m:e-p270:32:32-p271:32:32-p272:64:64-i64:64-f80:128-n8:16:32:64-S128"
target triple = "x86_64-pc-linux-gnu"

@.str = private unnamed_addr constant [5 x i8] c"%s%s\00", align 1
@.str.2 = private unnamed_addr constant [3 x i8] c"%s\00", align 1

; Function Attrs: nofree nounwind sspstrong uwtable
define dso_local i32 @main() local_unnamed_addr #0 {
  %1 = alloca [11 x i8], align 1
  %2 = alloca [4 x i8], align 1
  %3 = getelementptr inbounds [11 x i8], [11 x i8]* %1, i64 0, i64 0
  call void @llvm.lifetime.start.p0i8(i64 11, i8* nonnull %3) #4
  %4 = getelementptr inbounds [4 x i8], [4 x i8]* %2, i64 0, i64 0
  call void @llvm.lifetime.start.p0i8(i64 4, i8* nonnull %4) #4
  %5 = getelementptr inbounds [11 x i8], [11 x i8]* %1, i64 0, i64 1
  %6 = call i32 (i8*, ...) @__isoc99_scanf(i8* getelementptr inbounds ([5 x i8], [5 x i8]* @.str, i64 0, i64 0), i8* nonnull %3, i8* nonnull %4)
  %7 = icmp eq i32 %6, -1
  br i1 %7, label %59, label %8

8:                                                ; preds = %0, %55
  %9 = load i8, i8* %5, align 1, !tbaa !5
  %10 = icmp eq i8 %9, 0
  br i1 %10, label %13, label %17

11:                                               ; preds = %17
  %12 = icmp slt i32 %26, 0
  br i1 %12, label %39, label %13

13:                                               ; preds = %8, %11
  %14 = phi i32 [ %26, %11 ], [ 0, %8 ]
  %15 = add nuw i32 %14, 1
  %16 = zext i32 %15 to i64
  br label %31

17:                                               ; preds = %8, %17
  %18 = phi i64 [ %27, %17 ], [ 1, %8 ]
  %19 = phi i8 [ %29, %17 ], [ %9, %8 ]
  %20 = phi i32 [ %26, %17 ], [ 0, %8 ]
  %21 = sext i32 %20 to i64
  %22 = getelementptr inbounds [11 x i8], [11 x i8]* %1, i64 0, i64 %21
  %23 = load i8, i8* %22, align 1, !tbaa !5
  %24 = icmp sgt i8 %19, %23
  %25 = trunc i64 %18 to i32
  %26 = select i1 %24, i32 %25, i32 %20
  %27 = add nuw nsw i64 %18, 1
  %28 = getelementptr inbounds [11 x i8], [11 x i8]* %1, i64 0, i64 %27
  %29 = load i8, i8* %28, align 1, !tbaa !5
  %30 = icmp eq i8 %29, 0
  br i1 %30, label %11, label %17, !llvm.loop !8

31:                                               ; preds = %13, %31
  %32 = phi i64 [ 0, %13 ], [ %37, %31 ]
  %33 = getelementptr inbounds [11 x i8], [11 x i8]* %1, i64 0, i64 %32
  %34 = load i8, i8* %33, align 1, !tbaa !5
  %35 = sext i8 %34 to i32
  %36 = call i32 @putchar(i32 %35)
  %37 = add nuw nsw i64 %32, 1
  %38 = icmp eq i64 %37, %16
  br i1 %38, label %39, label %31, !llvm.loop !10

39:                                               ; preds = %31, %11
  %40 = phi i32 [ 0, %11 ], [ %15, %31 ]
  %41 = call i32 (i8*, ...) @printf(i8* nonnull dereferenceable(1) getelementptr inbounds ([3 x i8], [3 x i8]* @.str.2, i64 0, i64 0), i8* nonnull %4)
  %42 = zext i32 %40 to i64
  %43 = getelementptr inbounds [11 x i8], [11 x i8]* %1, i64 0, i64 %42
  %44 = load i8, i8* %43, align 1, !tbaa !5
  %45 = icmp eq i8 %44, 0
  br i1 %45, label %55, label %46

46:                                               ; preds = %39, %46
  %47 = phi i64 [ %49, %46 ], [ %42, %39 ]
  %48 = phi i8 [ %53, %46 ], [ %44, %39 ]
  %49 = add nuw i64 %47, 1
  %50 = sext i8 %48 to i32
  %51 = call i32 @putchar(i32 %50)
  %52 = getelementptr inbounds [11 x i8], [11 x i8]* %1, i64 0, i64 %49
  %53 = load i8, i8* %52, align 1, !tbaa !5
  %54 = icmp eq i8 %53, 0
  br i1 %54, label %55, label %46, !llvm.loop !11

55:                                               ; preds = %46, %39
  %56 = call i32 @putchar(i32 10)
  %57 = call i32 (i8*, ...) @__isoc99_scanf(i8* getelementptr inbounds ([5 x i8], [5 x i8]* @.str, i64 0, i64 0), i8* nonnull %3, i8* nonnull %4)
  %58 = icmp eq i32 %57, -1
  br i1 %58, label %59, label %8, !llvm.loop !12

59:                                               ; preds = %55, %0
  call void @llvm.lifetime.end.p0i8(i64 4, i8* nonnull %4) #4
  call void @llvm.lifetime.end.p0i8(i64 11, i8* nonnull %3) #4
  ret i32 0
}

; Function Attrs: argmemonly mustprogress nofree nosync nounwind willreturn
declare void @llvm.lifetime.start.p0i8(i64 immarg, i8* nocapture) #1

; Function Attrs: nofree nounwind
declare noundef i32 @__isoc99_scanf(i8* nocapture noundef readonly, ...) local_unnamed_addr #2

; Function Attrs: nofree nounwind
declare noundef i32 @printf(i8* nocapture noundef readonly, ...) local_unnamed_addr #2

; Function Attrs: argmemonly mustprogress nofree nosync nounwind willreturn
declare void @llvm.lifetime.end.p0i8(i64 immarg, i8* nocapture) #1

; Function Attrs: nofree nounwind
declare noundef i32 @putchar(i32 noundef) local_unnamed_addr #3


!llvm.module.flags = !{!0, !1, !2, !3}
!llvm.ident = !{!4}

!0 = !{i32 1, !"wchar_size", i32 4}
!1 = !{i32 7, !"PIC Level", i32 2}
!2 = !{i32 7, !"PIE Level", i32 2}
!3 = !{i32 7, !"uwtable", i32 1}
!4 = !{!"clang version 13.0.0"}
!5 = !{!6, !6, i64 0}
!6 = !{!"omnipotent char", !7, i64 0}
!7 = !{!"Simple C/C++ TBAA"}
!8 = distinct !{!8, !9}
!9 = !{!"llvm.loop.mustprogress"}
!10 = distinct !{!10, !9}
!11 = distinct !{!11, !9}
!12 = distinct !{!12, !9}
